; Function Attrs: nounwind uwtable
define ptr @l_Lean_MonadStateCacheT_run___rarg(ptr noundef %0, ptr readnone captures(none) %1, ptr noundef %2) #0 {
  %4 = getelementptr inbounds nuw i8, ptr %0, i64 8
  %5 = load ptr, ptr %4, align 8, !tbaa !4
  %6 = ptrtoint ptr %5 to i64
  %7 = and i64 %6, 1
  %.not = icmp eq i64 %7, 0
  br i1 %.not, label %8, label %lean_inc.exit16

8:                                                ; preds = %3
  %.val.i = load i32, ptr %5, align 4, !tbaa !8
  %9 = icmp sgt i32 %.val.i, 0
  br i1 %9, label %10, label %12, !prof !11

10:                                               ; preds = %8
  %11 = add nuw i32 %.val.i, 1
  store i32 %11, ptr %5, align 4, !tbaa !8
  br label %lean_inc.exit16

12:                                               ; preds = %8
  %.not.i23 = icmp eq i32 %.val.i, 0
  br i1 %.not.i23, label %lean_inc.exit16, label %13

13:                                               ; preds = %12
  tail call void @lean_inc_ref_cold(ptr noundef nonnull %5) #4
  br label %lean_inc.exit16

lean_inc.exit16:                                  ; preds = %13, %12, %10, %3
  %14 = ptrtoint ptr %0 to i64
  %15 = and i64 %14, 1
  %.not30 = icmp eq i64 %15, 0
  br i1 %.not30, label %16, label %lean_dec.exit18

16:                                               ; preds = %lean_inc.exit16
  %17 = load i32, ptr %0, align 4, !tbaa !8
  %18 = icmp sgt i32 %17, 1
  br i1 %18, label %19, label %21, !prof !11

19:                                               ; preds = %16
  %20 = add nsw i32 %17, -1
  store i32 %20, ptr %0, align 4, !tbaa !8
  br label %lean_dec.exit18

21:                                               ; preds = %16
  %.not.i = icmp eq i32 %17, 0
  br i1 %.not.i, label %lean_dec.exit18, label %22

22:                                               ; preds = %21
  tail call void @lean_dec_ref_cold(ptr noundef nonnull %0) #4
  br label %lean_dec.exit18

lean_dec.exit18:                                  ; preds = %22, %21, %19, %lean_inc.exit16
  %23 = getelementptr inbounds nuw i8, ptr %5, i64 8
  %24 = load ptr, ptr %23, align 8, !tbaa !4
  %25 = ptrtoint ptr %24 to i64
  %26 = and i64 %25, 1
  %.not31 = icmp eq i64 %26, 0
  br i1 %.not31, label %27, label %lean_inc.exit15

27:                                               ; preds = %lean_dec.exit18
  %.val.i24 = load i32, ptr %24, align 4, !tbaa !8
  %28 = icmp sgt i32 %.val.i24, 0
  br i1 %28, label %29, label %31, !prof !11

29:                                               ; preds = %27
  %30 = add nuw i32 %.val.i24, 1
  store i32 %30, ptr %24, align 4, !tbaa !8
  br label %lean_inc.exit15

31:                                               ; preds = %27
  %.not.i25 = icmp eq i32 %.val.i24, 0
  br i1 %.not.i25, label %lean_inc.exit15, label %32

32:                                               ; preds = %31
  tail call void @lean_inc_ref_cold(ptr noundef nonnull %24) #4
  br label %lean_inc.exit15

lean_inc.exit15:                                  ; preds = %32, %31, %29, %lean_dec.exit18
  br i1 %.not, label %33, label %lean_dec.exit17

33:                                               ; preds = %lean_inc.exit15
  %34 = load i32, ptr %5, align 4, !tbaa !8
  %35 = icmp sgt i32 %34, 1
  br i1 %35, label %36, label %38, !prof !11

36:                                               ; preds = %33
  %37 = add nsw i32 %34, -1
  store i32 %37, ptr %5, align 4, !tbaa !8
  br label %lean_dec.exit17

38:                                               ; preds = %33
  %.not.i19 = icmp eq i32 %34, 0
  br i1 %.not.i19, label %lean_dec.exit17, label %39

39:                                               ; preds = %38
  tail call void @lean_dec_ref_cold(ptr noundef nonnull %5) #4
  br label %lean_dec.exit17

lean_dec.exit17:                                  ; preds = %39, %38, %36, %lean_inc.exit15
  %40 = getelementptr inbounds nuw i8, ptr %24, i64 8
  %41 = load ptr, ptr %40, align 8, !tbaa !4
  %42 = ptrtoint ptr %41 to i64
  %43 = and i64 %42, 1
  %.not32 = icmp eq i64 %43, 0
  br i1 %.not32, label %44, label %lean_inc.exit

44:                                               ; preds = %lean_dec.exit17
  %.val.i27 = load i32, ptr %41, align 4, !tbaa !8
  %45 = icmp sgt i32 %.val.i27, 0
  br i1 %45, label %46, label %48, !prof !11

46:                                               ; preds = %44
  %47 = add nuw i32 %.val.i27, 1
  store i32 %47, ptr %41, align 4, !tbaa !8
  br label %lean_inc.exit

48:                                               ; preds = %44
  %.not.i28 = icmp eq i32 %.val.i27, 0
  br i1 %.not.i28, label %lean_inc.exit, label %49

49:                                               ; preds = %48
  tail call void @lean_inc_ref_cold(ptr noundef nonnull %41) #4
  br label %lean_inc.exit

lean_inc.exit:                                    ; preds = %49, %48, %46, %lean_dec.exit17
  br i1 %.not31, label %50, label %lean_dec.exit

50:                                               ; preds = %lean_inc.exit
  %51 = load i32, ptr %24, align 4, !tbaa !8
  %52 = icmp sgt i32 %51, 1
  br i1 %52, label %53, label %55, !prof !11

53:                                               ; preds = %50
  %54 = add nsw i32 %51, -1
  store i32 %54, ptr %24, align 4, !tbaa !8
  br label %lean_dec.exit

55:                                               ; preds = %50
  %.not.i21 = icmp eq i32 %51, 0
  br i1 %.not.i21, label %lean_dec.exit, label %56

56:                                               ; preds = %55
  tail call void @lean_dec_ref_cold(ptr noundef nonnull %24) #4
  br label %lean_dec.exit

lean_dec.exit:                                    ; preds = %56, %55, %53, %lean_inc.exit
  %57 = load ptr, ptr @l_Lean_MonadCacheT_run___rarg___closed__3, align 8, !tbaa !4
  %58 = tail call ptr @lean_apply_1(ptr noundef %2, ptr noundef %57) #4
  %59 = load ptr, ptr @l_Lean_MonadStateCacheT_run___rarg___closed__1, align 8, !tbaa !4
  %60 = tail call ptr @lean_apply_4(ptr noundef %41, ptr noundef nonnull inttoptr (i64 1 to ptr), ptr noundef nonnull inttoptr (i64 1 to ptr), ptr noundef %59, ptr noundef %58) #4
  ret ptr %60
}